target datalayout = "e-m:e-p270:32:32-p271:32:32-p272:64:64-i64:64-i128:128-f80:128-n8:16:32:64-S128"
target triple = "x86_64-pc-linux-gnu"

%struct.expert_field = type { i32, i32 }
%struct._packet_info = type { ptr, ptr, i32, i32, %struct.nstime_t, %struct.nstime_t, %struct.nstime_t, i8, ptr, ptr, ptr, ptr, %struct._address, %struct._address, %struct._address, %struct._address, %struct._address, %struct._address, i32, ptr, i8, [3 x i8], %struct.anon, i32, i32, i32, i32, ptr, i8, ptr, ptr, i16, i16, i32, i32, i16, i32, i32, ptr, ptr, ptr, i8, i8, i16, i16, i16, i32, i16, i16, ptr, ptr, ptr, ptr, ptr, i32, i32 }
%struct.nstime_t = type { i64, i32 }
%struct._address = type { i32, i32, ptr, ptr }
%struct.anon = type { i8, [3 x i8] }
%struct._asn1_ctx_t = type { i32, i32, i8, ptr, ptr, ptr, ptr, ptr, %struct.anon.0, %struct.anon.3, %struct.anon.4, ptr }
%struct.anon.0 = type { i32, i8, i8, i8, ptr, ptr, i32, i32, ptr, ptr, ptr, %union.anon }
%union.anon = type { %struct.anon.1 }
%struct.anon.1 = type { ptr }
%struct.anon.3 = type { ptr, ptr, ptr }
%struct.anon.4 = type { i32, i8, ptr, i32, i32, ptr, ptr, ptr, %union.anon.5 }
%union.anon.5 = type { %struct.anon.6 }
%struct.anon.6 = type { ptr }
%struct.ros_conv_info_t = type { ptr, ptr }

@ett_ros_unknown = internal global i32 0, align 4
@ett_ros_ROS = internal global i32 0, align 4
@ett_ros = internal global i32 0, align 4
@ei_ros_unknown_ros_pdu = internal global %struct.expert_field zeroinitializer, align 4
@.str.74 = private unnamed_addr constant [16 x i8] c"Unknown ROS PDU\00", align 1
@.str.76 = private unnamed_addr constant [4 x i8] c"ROS\00", align 1
@proto_ros = internal global i32 0, align 4
@top_tree = internal global ptr null, align 8

; Function Attrs: null_pointer_is_valid sspstrong uwtable
define hidden i32 @dissect_ros_ROS(i1 noundef zeroext %0, ptr noundef %1, i32 noundef %2, ptr noundef %3, ptr noundef %4, i32 noundef %5) #0 {
  %7 = alloca i8, align 1
  %8 = alloca ptr, align 8
  %9 = alloca i32, align 4
  %10 = alloca ptr, align 8
  %11 = alloca ptr, align 8
  %12 = alloca i32, align 4
  %13 = zext i1 %0 to i8
  store i8 %13, ptr %7, align 1
  store ptr %1, ptr %8, align 8
  store i32 %2, ptr %9, align 4
  store ptr %3, ptr %10, align 8
  store ptr %4, ptr %11, align 8
  store i32 %5, ptr %12, align 4
  %14 = load ptr, ptr %10, align 8
  %15 = load ptr, ptr %11, align 8
  %16 = load ptr, ptr %8, align 8
  %17 = load i32, ptr %9, align 4
  %18 = load i32, ptr %12, align 4
  %19 = load i32, ptr @ett_ros_ROS, align 4
  %20 = call i32 @dissect_ber_choice(ptr noundef %14, ptr noundef %15, ptr noundef %16, i32 noundef %17, ptr noundef @ROS_choice, i32 noundef %18, i32 noundef %19, ptr noundef null)
  store i32 %20, ptr %9, align 4
  %21 = load i32, ptr %9, align 4
  ret i32 %21
}

; Function Attrs: null_pointer_is_valid sspstrong uwtable
define internal i32 @dissect_ros(ptr noundef %0, ptr noundef %1, ptr noundef %2, ptr noundef %3) #0 {
  %5 = alloca i32, align 4
  %6 = alloca ptr, align 8
  %7 = alloca ptr, align 8
  %8 = alloca ptr, align 8
  %9 = alloca ptr, align 8
  %10 = alloca i32, align 4
  %11 = alloca i32, align 4
  %12 = alloca ptr, align 8
  %13 = alloca ptr, align 8
  %14 = alloca ptr, align 8
  %15 = alloca ptr, align 8
  %16 = alloca ptr, align 8
  %17 = alloca %struct._asn1_ctx_t, align 8
  %18 = alloca i32, align 4
  store ptr %0, ptr %6, align 8
  store ptr %1, ptr %7, align 8
  store ptr %2, ptr %8, align 8
  store ptr %3, ptr %9, align 8
  call void @llvm.lifetime.start.p0(i64 4, ptr %10) #7
  store i32 0, ptr %10, align 4
  call void @llvm.lifetime.start.p0(i64 4, ptr %11) #7
  call void @llvm.lifetime.start.p0(i64 8, ptr %12) #7
  call void @llvm.lifetime.start.p0(i64 8, ptr %13) #7
  call void @llvm.lifetime.start.p0(i64 8, ptr %14) #7
  store ptr null, ptr %14, align 8
  call void @llvm.lifetime.start.p0(i64 8, ptr %15) #7
  call void @llvm.lifetime.start.p0(i64 8, ptr %16) #7
  store ptr null, ptr %16, align 8
  call void @llvm.lifetime.start.p0(i64 208, ptr %17) #7
  %19 = load ptr, ptr %7, align 8
  call void @asn1_ctx_init(ptr noundef %17, i32 noundef 0, i1 noundef zeroext true, ptr noundef %19)
  %20 = load ptr, ptr %9, align 8
  %21 = icmp eq ptr %20, null
  br i1 %21, label %22, label %23

22:                                               ; preds = %4
  store i32 0, ptr %5, align 4
  store i32 1, ptr %18, align 4
  br label %94

23:                                               ; preds = %4
  %24 = load ptr, ptr %9, align 8
  %25 = getelementptr inbounds nuw %struct._asn1_ctx_t, ptr %17, i32 0, i32 7
  store ptr %24, ptr %25, align 8
  %26 = load ptr, ptr %8, align 8
  store ptr %26, ptr @top_tree, align 8
  %27 = load ptr, ptr %7, align 8
  %28 = call ptr @find_or_create_conversation(ptr noundef %27)
  store ptr %28, ptr %15, align 8
  %29 = load ptr, ptr %15, align 8
  %30 = load i32, ptr @proto_ros, align 4
  %31 = call ptr @conversation_get_proto_data(ptr noundef %29, i32 noundef %30)
  store ptr %31, ptr %16, align 8
  %32 = load ptr, ptr %16, align 8
  %33 = icmp eq ptr %32, null
  br i1 %33, label %34, label %48

34:                                               ; preds = %23
  %35 = call ptr @wmem_file_scope()
  %36 = call noalias ptr @wmem_alloc0(ptr noundef %35, i64 noundef 16) #8
  store ptr %36, ptr %16, align 8
  %37 = call ptr @wmem_file_scope()
  %38 = call noalias ptr @wmem_map_new(ptr noundef %37, ptr noundef @ros_info_hash_matched, ptr noundef @ros_info_equal_matched)
  %39 = load ptr, ptr %16, align 8
  %40 = getelementptr inbounds nuw %struct.ros_conv_info_t, ptr %39, i32 0, i32 1
  store ptr %38, ptr %40, align 8
  %41 = call ptr @wmem_file_scope()
  %42 = call noalias ptr @wmem_map_new(ptr noundef %41, ptr noundef @ros_info_hash_unmatched, ptr noundef @ros_info_equal_unmatched)
  %43 = load ptr, ptr %16, align 8
  %44 = getelementptr inbounds nuw %struct.ros_conv_info_t, ptr %43, i32 0, i32 0
  store ptr %42, ptr %44, align 8
  %45 = load ptr, ptr %15, align 8
  %46 = load i32, ptr @proto_ros, align 4
  %47 = load ptr, ptr %16, align 8
  call void @conversation_add_proto_data(ptr noundef %45, i32 noundef %46, ptr noundef %47)
  br label %48

48:                                               ; preds = %34, %23
  %49 = load ptr, ptr %8, align 8
  %50 = load i32, ptr @proto_ros, align 4
  %51 = load ptr, ptr %6, align 8
  %52 = call ptr @proto_tree_add_item(ptr noundef %49, i32 noundef %50, ptr noundef %51, i32 noundef 0, i32 noundef -1, i32 noundef 0)
  store ptr %52, ptr %12, align 8
  %53 = load ptr, ptr %12, align 8
  %54 = load i32, ptr @ett_ros, align 4
  %55 = call ptr @proto_item_add_subtree(ptr noundef %53, i32 noundef %54)
  store ptr %55, ptr %13, align 8
  %56 = load ptr, ptr %7, align 8
  %57 = getelementptr inbounds nuw %struct._packet_info, ptr %56, i32 0, i32 1
  %58 = load ptr, ptr %57, align 8
  call void @col_set_str(ptr noundef %58, i32 noundef 35, ptr noundef @.str.76)
  %59 = load ptr, ptr %7, align 8
  %60 = getelementptr inbounds nuw %struct._packet_info, ptr %59, i32 0, i32 1
  %61 = load ptr, ptr %60, align 8
  call void @col_clear(ptr noundef %61, i32 noundef 25)
  br label %62

62:                                               ; preds = %90, %48
  %63 = load ptr, ptr %6, align 8
  %64 = load i32, ptr %10, align 4
  %65 = call i32 @tvb_reported_length_remaining(ptr noundef %63, i32 noundef %64)
  %66 = icmp sgt i32 %65, 0
  br i1 %66, label %67, label %91

67:                                               ; preds = %62
  %68 = load i32, ptr %10, align 4
  store i32 %68, ptr %11, align 4
  %69 = load ptr, ptr %6, align 8
  %70 = load i32, ptr %10, align 4
  %71 = load ptr, ptr %13, align 8
  %72 = call i32 @dissect_ros_ROS(i1 noundef zeroext false, ptr noundef %69, i32 noundef %70, ptr noundef %17, ptr noundef %71, i32 noundef -1)
  store i32 %72, ptr %10, align 4
  %73 = load i32, ptr %10, align 4
  %74 = load i32, ptr %11, align 4
  %75 = icmp eq i32 %73, %74
  br i1 %75, label %76, label %90

76:                                               ; preds = %67
  %77 = load ptr, ptr %13, align 8
  %78 = load ptr, ptr %6, align 8
  %79 = load i32, ptr %10, align 4
  %80 = load i32, ptr @ett_ros_unknown, align 4
  %81 = call ptr @proto_tree_add_subtree(ptr noundef %77, ptr noundef %78, i32 noundef %79, i32 noundef -1, i32 noundef %80, ptr noundef %12, ptr noundef @.str.74)
  store ptr %81, ptr %14, align 8
  %82 = load ptr, ptr %7, align 8
  %83 = load ptr, ptr %12, align 8
  %84 = call ptr @expert_add_info(ptr noundef %82, ptr noundef %83, ptr noundef @ei_ros_unknown_ros_pdu)
  %85 = load ptr, ptr %7, align 8
  %86 = load ptr, ptr %6, align 8
  %87 = load i32, ptr %10, align 4
  %88 = load ptr, ptr %14, align 8
  %89 = call i32 @dissect_unknown_ber(ptr noundef %85, ptr noundef %86, i32 noundef %87, ptr noundef %88)
  br label %91

90:                                               ; preds = %67
  br label %62, !llvm.loop !8

91:                                               ; preds = %76, %62
  %92 = load ptr, ptr %6, align 8
  %93 = call i32 @tvb_captured_length(ptr noundef %92)
  store i32 %93, ptr %5, align 4
  store i32 1, ptr %18, align 4
  br label %94

94:                                               ; preds = %91, %22
  call void @llvm.lifetime.end.p0(i64 208, ptr %17) #7
  call void @llvm.lifetime.end.p0(i64 8, ptr %16) #7
  call void @llvm.lifetime.end.p0(i64 8, ptr %15) #7
  call void @llvm.lifetime.end.p0(i64 8, ptr %14) #7
  call void @llvm.lifetime.end.p0(i64 8, ptr %13) #7
  call void @llvm.lifetime.end.p0(i64 8, ptr %12) #7
  call void @llvm.lifetime.end.p0(i64 4, ptr %11) #7
  call void @llvm.lifetime.end.p0(i64 4, ptr %10) #7
  %95 = load i32, ptr %5, align 4
  ret i32 %95
}