; Function Attrs: null_pointer_is_valid sspstrong uwtable
define internal i32 @dissect_ros(ptr noundef %0, ptr noundef %1, ptr noundef %2, ptr noundef %3) #0 {
  %5 = alloca ptr, align 8
  %6 = alloca %struct._asn1_ctx_t, align 8
  call void @llvm.lifetime.start.p0(i64 8, ptr nonnull %5) #7
  call void @llvm.lifetime.start.p0(i64 208, ptr nonnull %6) #7
  call void @asn1_ctx_init(ptr noundef nonnull %6, i32 noundef 0, i1 noundef zeroext true, ptr noundef %1)
  %7 = icmp eq ptr %3, null
  br i1 %7, label %45, label %8

8:                                                ; preds = %4
  %9 = getelementptr inbounds nuw i8, ptr %6, i64 48
  store ptr %3, ptr %9, align 8
  store ptr %2, ptr @top_tree, align 8
  %10 = call ptr @find_or_create_conversation(ptr noundef %1)
  %11 = load i32, ptr @proto_ros, align 4
  %12 = call ptr @conversation_get_proto_data(ptr noundef %10, i32 noundef %11)
  %13 = icmp eq ptr %12, null
  br i1 %13, label %14, label %23

14:                                               ; preds = %8
  %15 = call ptr @wmem_file_scope()
  %16 = call noalias dereferenceable_or_null(16) ptr @wmem_alloc0(ptr noundef %15, i64 noundef 16) #8
  %17 = call ptr @wmem_file_scope()
  %18 = call noalias ptr @wmem_map_new(ptr noundef %17, ptr noundef nonnull @ros_info_hash_matched, ptr noundef nonnull @ros_info_equal_matched)
  %19 = getelementptr inbounds nuw i8, ptr %16, i64 8
  store ptr %18, ptr %19, align 8
  %20 = call ptr @wmem_file_scope()
  %21 = call noalias ptr @wmem_map_new(ptr noundef %20, ptr noundef nonnull @ros_info_hash_unmatched, ptr noundef nonnull @ros_info_equal_unmatched)
  store ptr %21, ptr %16, align 8
  %22 = load i32, ptr @proto_ros, align 4
  call void @conversation_add_proto_data(ptr noundef %10, i32 noundef %22, ptr noundef %16)
  br label %23

23:                                               ; preds = %14, %8
  %24 = load i32, ptr @proto_ros, align 4
  %25 = call ptr @proto_tree_add_item(ptr noundef %2, i32 noundef %24, ptr noundef %0, i32 noundef 0, i32 noundef -1, i32 noundef 0)
  store ptr %25, ptr %5, align 8
  %26 = load i32, ptr @ett_ros, align 4
  %27 = call ptr @proto_item_add_subtree(ptr noundef %25, i32 noundef %26)
  %28 = getelementptr inbounds nuw i8, ptr %1, i64 8
  %29 = load ptr, ptr %28, align 8
  call void @col_set_str(ptr noundef %29, i32 noundef 35, ptr noundef nonnull @.str.76)
  %30 = load ptr, ptr %28, align 8
  call void @col_clear(ptr noundef %30, i32 noundef 25)
  br label %31

31:                                               ; preds = %34, %23
  %.032 = phi i32 [ 0, %23 ], [ %36, %34 ]
  %32 = call i32 @tvb_reported_length_remaining(ptr noundef %0, i32 noundef %.032)
  %33 = icmp sgt i32 %32, 0
  br i1 %33, label %34, label %.loopexit

34:                                               ; preds = %31
  %35 = load i32, ptr @ett_ros_ROS, align 4
  %36 = call i32 @dissect_ber_choice(ptr noundef nonnull %6, ptr noundef %27, ptr noundef %0, i32 noundef %.032, ptr noundef nonnull @ROS_choice, i32 noundef -1, i32 noundef %35, ptr noundef null)
  %37 = icmp eq i32 %36, %.032
  br i1 %37, label %38, label %31, !llvm.loop !9

38:                                               ; preds = %34
  %39 = load i32, ptr @ett_ros_unknown, align 4
  %40 = call ptr @proto_tree_add_subtree(ptr noundef %27, ptr noundef %0, i32 noundef %.032, i32 noundef -1, i32 noundef %39, ptr noundef nonnull %5, ptr noundef nonnull @.str.74)
  %41 = load ptr, ptr %5, align 8
  %42 = call ptr @expert_add_info(ptr noundef %1, ptr noundef %41, ptr noundef nonnull @ei_ros_unknown_ros_pdu)
  %43 = call i32 @dissect_unknown_ber(ptr noundef %1, ptr noundef %0, i32 noundef %.032, ptr noundef %40)
  br label %.loopexit

.loopexit:                                        ; preds = %31, %38
  %44 = call i32 @tvb_captured_length(ptr noundef %0)
  br label %45

45:                                               ; preds = %4, %.loopexit
  %.0 = phi i32 [ %44, %.loopexit ], [ 0, %4 ]
  call void @llvm.lifetime.end.p0(i64 208, ptr nonnull %6) #7
  call void @llvm.lifetime.end.p0(i64 8, ptr nonnull %5) #7
  ret i32 %.0
}